; Function Attrs: mustprogress uwtable
define internal fastcc void @"_ZSt21__inplace_stable_sortIPmN9__gnu_cxx5__ops15_Iter_comp_iterIZN7xgboost6common16WeightedQuantileINS5_18IndexTransformIterIZZZNS4_3obj6detail18UpdateTreeLeafHostEPKNS4_7ContextERKSt6vectorIiSaIiEEiRKNS4_8MetaInfoEfRKNS4_16HostDeviceVectorIfEEfPNS4_7RegTreeEENK3$_1clEvENKUlmE_clEmEUlmE_EENS7_IZZZNS9_18UpdateTreeLeafHostESC_SH_iSK_fSO_fSQ_ENKSR_clEvENKSS_clEmEUlmE0_EEfEET1_SC_dT_SY_T0_EUlmmE_EEEvSY_SY_SZ_"(ptr noundef %0, ptr noundef %1, ptr %2) unnamed_addr #3 {
  %4 = ptrtoint ptr %1 to i64
  %5 = ptrtoint ptr %0 to i64
  %6 = sub i64 %4, %5
  %7 = ashr exact i64 %6, 3
  %8 = icmp slt i64 %7, 15
  br i1 %8, label %common.ret, label %9

common.ret:                                       ; preds = %3
  tail call fastcc void @"_ZSt16__insertion_sortIPmN9__gnu_cxx5__ops15_Iter_comp_iterIZN7xgboost6common16WeightedQuantileINS5_18IndexTransformIterIZZZNS4_3obj6detail18UpdateTreeLeafHostEPKNS4_7ContextERKSt6vectorIiSaIiEEiRKNS4_8MetaInfoEfRKNS4_16HostDeviceVectorIfEEfPNS4_7RegTreeEENK3$_1clEvENKUlmE_clEmEUlmE_EENS7_IZZZNS9_18UpdateTreeLeafHostESC_SH_iSK_fSO_fSQ_ENKSR_clEvENKSS_clEmEUlmE0_EEfEET1_SC_dT_SY_T0_EUlmmE_EEEvSY_SY_SZ_"(ptr noundef %0, ptr noundef %1, ptr %2)
  br label %common.ret22

common.ret22:                                     ; preds = %9, %common.ret
  ret void

9:                                                ; preds = %3
  %10 = lshr i64 %7, 1
  %11 = getelementptr inbounds nuw i64, ptr %0, i64 %10
  tail call fastcc void @"_ZSt21__inplace_stable_sortIPmN9__gnu_cxx5__ops15_Iter_comp_iterIZN7xgboost6common16WeightedQuantileINS5_18IndexTransformIterIZZZNS4_3obj6detail18UpdateTreeLeafHostEPKNS4_7ContextERKSt6vectorIiSaIiEEiRKNS4_8MetaInfoEfRKNS4_16HostDeviceVectorIfEEfPNS4_7RegTreeEENK3$_1clEvENKUlmE_clEmEUlmE_EENS7_IZZZNS9_18UpdateTreeLeafHostESC_SH_iSK_fSO_fSQ_ENKSR_clEvENKSS_clEmEUlmE0_EEfEET1_SC_dT_SY_T0_EUlmmE_EEEvSY_SY_SZ_"(ptr noundef %0, ptr noundef %11, ptr %2)
  tail call fastcc void @"_ZSt21__inplace_stable_sortIPmN9__gnu_cxx5__ops15_Iter_comp_iterIZN7xgboost6common16WeightedQuantileINS5_18IndexTransformIterIZZZNS4_3obj6detail18UpdateTreeLeafHostEPKNS4_7ContextERKSt6vectorIiSaIiEEiRKNS4_8MetaInfoEfRKNS4_16HostDeviceVectorIfEEfPNS4_7RegTreeEENK3$_1clEvENKUlmE_clEmEUlmE_EENS7_IZZZNS9_18UpdateTreeLeafHostESC_SH_iSK_fSO_fSQ_ENKSR_clEvENKSS_clEmEUlmE0_EEfEET1_SC_dT_SY_T0_EUlmmE_EEEvSY_SY_SZ_"(ptr noundef %11, ptr noundef %1, ptr %2)
  %12 = ptrtoint ptr %11 to i64
  %13 = sub i64 %4, %12
  %14 = ashr exact i64 %13, 3
  tail call fastcc void @"_ZSt22__merge_without_bufferIPmlN9__gnu_cxx5__ops15_Iter_comp_iterIZN7xgboost6common16WeightedQuantileINS5_18IndexTransformIterIZZZNS4_3obj6detail18UpdateTreeLeafHostEPKNS4_7ContextERKSt6vectorIiSaIiEEiRKNS4_8MetaInfoEfRKNS4_16HostDeviceVectorIfEEfPNS4_7RegTreeEENK3$_1clEvENKUlmE_clEmEUlmE_EENS7_IZZZNS9_18UpdateTreeLeafHostESC_SH_iSK_fSO_fSQ_ENKSR_clEvENKSS_clEmEUlmE0_EEfEET1_SC_dT_SY_T0_EUlmmE_EEEvSY_SY_SY_SZ_SZ_SX_"(ptr noundef %0, ptr noundef %11, ptr noundef %1, i64 noundef %10, i64 noundef %14, ptr %2)
  br label %common.ret22
}